; ModuleID = '5/979.c'
source_filename = "5/979.c"
target datalayout = "e-m:e-p270:32:32-p271:32:32-p272:64:64-i64:64-f80:128-n8:16:32:64-S128"
target triple = "x86_64-pc-linux-gnu"

@.str = private unnamed_addr constant [4 x i8] c"%f\0A\00", align 1
@.str.1 = private unnamed_addr constant [6 x i8] c"error\00", align 1
@.str.2 = private unnamed_addr constant [4 x i8] c"yes\00", align 1
@.str.3 = private unnamed_addr constant [3 x i8] c"no\00", align 1

; Function Attrs: noinline nounwind uwtable
define dso_local i32 @f(i8 signext %0) #0 {
  %2 = alloca i32, align 4
  %3 = alloca i8, align 1
  store i8 %0, i8* %3, align 1
  %4 = load i8, i8* %3, align 1
  %5 = sext i8 %4 to i32
  %6 = icmp eq i32 %5, 65
  br i1 %6, label %19, label %7

7:                                                ; preds = %1
  %8 = load i8, i8* %3, align 1
  %9 = sext i8 %8 to i32
  %10 = icmp eq i32 %9, 84
  br i1 %10, label %19, label %11

11:                                               ; preds = %7
  %12 = load i8, i8* %3, align 1
  %13 = sext i8 %12 to i32
  %14 = icmp eq i32 %13, 71
  br i1 %14, label %19, label %15

15:                                               ; preds = %11
  %16 = load i8, i8* %3, align 1
  %17 = sext i8 %16 to i32
  %18 = icmp eq i32 %17, 67
  br i1 %18, label %19, label %20

19:                                               ; preds = %15, %11, %7, %1
  store i32 0, i32* %2, align 4
  br label %21

20:                                               ; preds = %15
  store i32 1, i32* %2, align 4
  br label %21

21:                                               ; preds = %20, %19
  %22 = load i32, i32* %2, align 4
  ret i32 %22
}

; Function Attrs: noinline nounwind uwtable
define dso_local i32 @main(i32 %0, i8** %1) #0 {
  %3 = alloca i32, align 4
  %4 = alloca i32, align 4
  %5 = alloca i8**, align 8
  %6 = alloca [501 x i8], align 16
  %7 = alloca [501 x i8], align 16
  %8 = alloca i32, align 4
  %9 = alloca i32, align 4
  %10 = alloca i32, align 4
  %11 = alloca float, align 4
  store i32 0, i32* %3, align 4
  store i32 %0, i32* %4, align 4
  store i8** %1, i8*** %5, align 8
  store i32 0, i32* %8, align 4
  store i32 1, i32* %10, align 4
  %12 = call i32 (i8*, ...) @__isoc99_scanf(i8* getelementptr inbounds ([4 x i8], [4 x i8]* @.str, i64 0, i64 0), float* %11)
  %13 = getelementptr inbounds [501 x i8], [501 x i8]* %6, i64 0, i64 0
  %14 = call i32 (i8*, ...) bitcast (i32 (...)* @gets to i32 (i8*, ...)*)(i8* %13)
  %15 = getelementptr inbounds [501 x i8], [501 x i8]* %7, i64 0, i64 0
  %16 = call i32 (i8*, ...) bitcast (i32 (...)* @gets to i32 (i8*, ...)*)(i8* %15)
  store i32 1, i32* %9, align 4
  br label %17

17:                                               ; preds = %33, %2
  %18 = load i32, i32* %9, align 4
  %19 = sext i32 %18 to i64
  %20 = getelementptr inbounds [501 x i8], [501 x i8]* %6, i64 0, i64 0
  %21 = call i64 @strlen(i8* %20) #3
  %22 = icmp ule i64 %19, %21
  br i1 %22, label %23, label %36

23:                                               ; preds = %17
  %24 = load i32, i32* %9, align 4
  %25 = sub nsw i32 %24, 1
  %26 = sext i32 %25 to i64
  %27 = getelementptr inbounds [501 x i8], [501 x i8]* %6, i64 0, i64 %26
  %28 = load i8, i8* %27, align 1
  %29 = call i32 @f(i8 signext %28)
  %30 = icmp ne i32 %29, 0
  br i1 %30, label %31, label %32

31:                                               ; preds = %23
  store i32 0, i32* %10, align 4
  br label %32

32:                                               ; preds = %31, %23
  br label %33

33:                                               ; preds = %32
  %34 = load i32, i32* %9, align 4
  %35 = add nsw i32 %34, 1
  store i32 %35, i32* %9, align 4
  br label %17

36:                                               ; preds = %17
  store i32 1, i32* %9, align 4
  br label %37

37:                                               ; preds = %53, %36
  %38 = load i32, i32* %9, align 4
  %39 = sext i32 %38 to i64
  %40 = getelementptr inbounds [501 x i8], [501 x i8]* %7, i64 0, i64 0
  %41 = call i64 @strlen(i8* %40) #3
  %42 = icmp ule i64 %39, %41
  br i1 %42, label %43, label %56

43:                                               ; preds = %37
  %44 = load i32, i32* %9, align 4
  %45 = sub nsw i32 %44, 1
  %46 = sext i32 %45 to i64
  %47 = getelementptr inbounds [501 x i8], [501 x i8]* %7, i64 0, i64 %46
  %48 = load i8, i8* %47, align 1
  %49 = call i32 @f(i8 signext %48)
  %50 = icmp ne i32 %49, 0
  br i1 %50, label %51, label %52

51:                                               ; preds = %43
  store i32 0, i32* %10, align 4
  br label %52

52:                                               ; preds = %51, %43
  br label %53

53:                                               ; preds = %52
  %54 = load i32, i32* %9, align 4
  %55 = add nsw i32 %54, 1
  store i32 %55, i32* %9, align 4
  br label %37

56:                                               ; preds = %37
  %57 = getelementptr inbounds [501 x i8], [501 x i8]* %6, i64 0, i64 0
  %58 = call i64 @strlen(i8* %57) #3
  %59 = getelementptr inbounds [501 x i8], [501 x i8]* %7, i64 0, i64 0
  %60 = call i64 @strlen(i8* %59) #3
  %61 = icmp ne i64 %58, %60
  br i1 %61, label %62, label %63

62:                                               ; preds = %56
  store i32 0, i32* %10, align 4
  br label %63

63:                                               ; preds = %62, %56
  %64 = load i32, i32* %10, align 4
  %65 = icmp eq i32 %64, 0
  br i1 %65, label %66, label %68

66:                                               ; preds = %63
  %67 = call i32 (i8*, ...) @printf(i8* getelementptr inbounds ([6 x i8], [6 x i8]* @.str.1, i64 0, i64 0))
  br label %110

68:                                               ; preds = %63
  store i32 1, i32* %9, align 4
  br label %69

69:                                               ; preds = %93, %68
  %70 = load i32, i32* %9, align 4
  %71 = sext i32 %70 to i64
  %72 = getelementptr inbounds [501 x i8], [501 x i8]* %6, i64 0, i64 0
  %73 = call i64 @strlen(i8* %72) #3
  %74 = icmp ule i64 %71, %73
  br i1 %74, label %75, label %96

75:                                               ; preds = %69
  %76 = load i32, i32* %9, align 4
  %77 = sub nsw i32 %76, 1
  %78 = sext i32 %77 to i64
  %79 = getelementptr inbounds [501 x i8], [501 x i8]* %6, i64 0, i64 %78
  %80 = load i8, i8* %79, align 1
  %81 = sext i8 %80 to i32
  %82 = load i32, i32* %9, align 4
  %83 = sub nsw i32 %82, 1
  %84 = sext i32 %83 to i64
  %85 = getelementptr inbounds [501 x i8], [501 x i8]* %7, i64 0, i64 %84
  %86 = load i8, i8* %85, align 1
  %87 = sext i8 %86 to i32
  %88 = icmp eq i32 %81, %87
  br i1 %88, label %89, label %92

89:                                               ; preds = %75
  %90 = load i32, i32* %8, align 4
  %91 = add nsw i32 %90, 1
  store i32 %91, i32* %8, align 4
  br label %92

92:                                               ; preds = %89, %75
  br label %93

93:                                               ; preds = %92
  %94 = load i32, i32* %9, align 4
  %95 = add nsw i32 %94, 1
  store i32 %95, i32* %9, align 4
  br label %69

96:                                               ; preds = %69
  %97 = load i32, i32* %8, align 4
  %98 = sitofp i32 %97 to float
  %99 = load float, float* %11, align 4
  %100 = getelementptr inbounds [501 x i8], [501 x i8]* %6, i64 0, i64 0
  %101 = call i64 @strlen(i8* %100) #3
  %102 = uitofp i64 %101 to float
  %103 = fmul float %99, %102
  %104 = fcmp ogt float %98, %103
  br i1 %104, label %105, label %107

105:                                              ; preds = %96
  %106 = call i32 (i8*, ...) @printf(i8* getelementptr inbounds ([4 x i8], [4 x i8]* @.str.2, i64 0, i64 0))
  br label %109

107:                                              ; preds = %96
  %108 = call i32 (i8*, ...) @printf(i8* getelementptr inbounds ([3 x i8], [3 x i8]* @.str.3, i64 0, i64 0))
  br label %109

109:                                              ; preds = %107, %105
  br label %110

110:                                              ; preds = %109, %66
  ret i32 0
}

declare dso_local i32 @__isoc99_scanf(i8*, ...) #1

declare dso_local i32 @gets(...) #1

; Function Attrs: nounwind readonly
declare dso_local i64 @strlen(i8*) #2

declare dso_local i32 @printf(i8*, ...) #1


!llvm.module.flags = !{!0}
!llvm.ident = !{!1}

!0 = !{i32 1, !"wchar_size", i32 4}
!1 = !{!"clang version 10.0.0-4ubuntu1 "}
